; Function Attrs: nounwind uwtable
define internal noundef i32 @io_gc(ptr noundef %0) #0 {
  %2 = tail call ptr @luaL_checkudata(ptr noundef %0, i32 noundef 1, ptr noundef nonnull @.str.5) #9
  %3 = load ptr, ptr %2, align 8, !tbaa !4
  %.not = icmp eq ptr %3, null
  br i1 %.not, label %7, label %4

4:                                                ; preds = %1
  tail call void @lua_getfenv(ptr noundef %0, i32 noundef 1) #9
  tail call void @lua_getfield(ptr noundef %0, i32 noundef -1, ptr noundef nonnull @.str.17) #9
  %5 = tail call ptr @lua_tocfunction(ptr noundef %0, i32 noundef -1) #9
  %6 = tail call i32 %5(ptr noundef %0) #9
  br label %7

7:                                                ; preds = %4, %1
  ret i32 0
}